; Function Attrs: nounwind uwtable
define ptr @l_Lake_Toml_recNodeWithAntiquot_go___boxed(ptr noundef %0, ptr noundef %1, ptr noundef %2, ptr noundef %3, ptr noundef %4) #1 {
  %6 = ptrtoint ptr %3 to i64
  %7 = lshr i64 %6, 1
  %8 = trunc i64 %7 to i8
  %9 = and i64 %6, 1
  %.not = icmp eq i64 %9, 0
  br i1 %.not, label %10, label %lean_dec.exit8

10:                                               ; preds = %5
  %11 = load i32, ptr %3, align 4, !tbaa !4
  %12 = icmp sgt i32 %11, 1
  br i1 %12, label %13, label %15, !prof !9

13:                                               ; preds = %10
  %14 = add nsw i32 %11, -1
  store i32 %14, ptr %3, align 4, !tbaa !4
  br label %lean_dec.exit8

15:                                               ; preds = %10
  %.not.i = icmp eq i32 %11, 0
  br i1 %.not.i, label %lean_dec.exit8, label %16

16:                                               ; preds = %15
  tail call void @lean_dec_ref_cold(ptr noundef nonnull %3) #4
  br label %lean_dec.exit8

lean_dec.exit8:                                   ; preds = %16, %15, %13, %5
  %17 = ptrtoint ptr %1 to i64
  %18 = and i64 %17, 1
  %.not.i11 = icmp eq i64 %18, 0
  br i1 %.not.i11, label %19, label %l_Lake_Toml_recNodeWithAntiquot_go.exit

19:                                               ; preds = %lean_dec.exit8
  %.val.i.i = load i32, ptr %1, align 4, !tbaa !4
  %20 = icmp sgt i32 %.val.i.i, 0
  br i1 %20, label %21, label %23, !prof !9

21:                                               ; preds = %19
  %22 = add nuw i32 %.val.i.i, 1
  store i32 %22, ptr %1, align 4, !tbaa !4
  br label %l_Lake_Toml_recNodeWithAntiquot_go.exit

23:                                               ; preds = %19
  %.not.i.i = icmp eq i32 %.val.i.i, 0
  br i1 %.not.i.i, label %l_Lake_Toml_recNodeWithAntiquot_go.exit, label %24

24:                                               ; preds = %23
  tail call void @lean_inc_ref_cold(ptr noundef nonnull %1) #4
  br label %l_Lake_Toml_recNodeWithAntiquot_go.exit

l_Lake_Toml_recNodeWithAntiquot_go.exit:          ; preds = %lean_dec.exit8, %21, %23, %24
  %25 = tail call ptr @l_Lean_Parser_mkAntiquot(ptr noundef %0, ptr noundef %1, i8 noundef zeroext %8, i8 noundef zeroext 1) #4
  %26 = tail call ptr @lean_apply_1(ptr noundef %2, ptr noundef %4) #4
  %27 = tail call ptr @l_Lean_Parser_withAntiquot(ptr noundef %25, ptr noundef %26) #4
  %28 = tail call ptr @l_Lean_Parser_withCache(ptr noundef %1, ptr noundef %27) #4
  %29 = ptrtoint ptr %0 to i64
  %30 = and i64 %29, 1
  %.not12 = icmp eq i64 %30, 0
  br i1 %.not12, label %31, label %lean_dec.exit

31:                                               ; preds = %l_Lake_Toml_recNodeWithAntiquot_go.exit
  %32 = load i32, ptr %0, align 4, !tbaa !4
  %33 = icmp sgt i32 %32, 1
  br i1 %33, label %34, label %36, !prof !9

34:                                               ; preds = %31
  %35 = add nsw i32 %32, -1
  store i32 %35, ptr %0, align 4, !tbaa !4
  br label %lean_dec.exit

36:                                               ; preds = %31
  %.not.i9 = icmp eq i32 %32, 0
  br i1 %.not.i9, label %lean_dec.exit, label %37

37:                                               ; preds = %36
  tail call void @lean_dec_ref_cold(ptr noundef nonnull %0) #4
  br label %lean_dec.exit

lean_dec.exit:                                    ; preds = %37, %36, %34, %l_Lake_Toml_recNodeWithAntiquot_go.exit
  ret ptr %28
}